target datalayout = "e-m:e-p270:32:32-p271:32:32-p272:64:64-i64:64-i128:128-f80:128-n8:16:32:64-S128"
target triple = "x86_64-pc-linux-gnu"

%struct._cmsMemPluginChunkType = type { ptr, ptr, ptr, ptr, ptr, ptr }
%struct.cmsPluginMemHandler = type { %struct._cmsPluginBaseStruct, ptr, ptr, ptr, ptr, ptr, ptr }
%struct._cmsPluginBaseStruct = type { i32, i32, i32, ptr }

@_cmsMemPluginChunk = hidden global %struct._cmsMemPluginChunkType { ptr @_cmsMallocDefaultFn, ptr @_cmsMallocZeroDefaultFn, ptr @_cmsFreeDefaultFn, ptr @_cmsReallocDefaultFn, ptr @_cmsCallocDefaultFn, ptr @_cmsDupDefaultFn }, align 8

; Function Attrs: nounwind uwtable
define hidden void @_cmsInstallAllocFunctions(ptr noundef %0, ptr noundef %1) #0 {
  %3 = alloca ptr, align 8
  %4 = alloca ptr, align 8
  store ptr %0, ptr %3, align 8
  store ptr %1, ptr %4, align 8
  %5 = load ptr, ptr %3, align 8
  %6 = icmp eq ptr %5, null
  br i1 %6, label %7, label %9

7:                                                ; preds = %2
  %8 = load ptr, ptr %4, align 8
  call void @llvm.memcpy.p0.p0.i64(ptr align 8 %8, ptr align 8 @_cmsMemPluginChunk, i64 48, i1 false)
  br label %64

9:                                                ; preds = %2
  %10 = load ptr, ptr %3, align 8
  %11 = getelementptr inbounds %struct.cmsPluginMemHandler, ptr %10, i32 0, i32 1
  %12 = load ptr, ptr %11, align 8
  %13 = load ptr, ptr %4, align 8
  %14 = getelementptr inbounds %struct._cmsMemPluginChunkType, ptr %13, i32 0, i32 0
  store ptr %12, ptr %14, align 8
  %15 = load ptr, ptr %3, align 8
  %16 = getelementptr inbounds %struct.cmsPluginMemHandler, ptr %15, i32 0, i32 2
  %17 = load ptr, ptr %16, align 8
  %18 = load ptr, ptr %4, align 8
  %19 = getelementptr inbounds %struct._cmsMemPluginChunkType, ptr %18, i32 0, i32 2
  store ptr %17, ptr %19, align 8
  %20 = load ptr, ptr %3, align 8
  %21 = getelementptr inbounds %struct.cmsPluginMemHandler, ptr %20, i32 0, i32 3
  %22 = load ptr, ptr %21, align 8
  %23 = load ptr, ptr %4, align 8
  %24 = getelementptr inbounds %struct._cmsMemPluginChunkType, ptr %23, i32 0, i32 3
  store ptr %22, ptr %24, align 8
  %25 = load ptr, ptr %4, align 8
  %26 = getelementptr inbounds %struct._cmsMemPluginChunkType, ptr %25, i32 0, i32 1
  store ptr @_cmsMallocZeroDefaultFn, ptr %26, align 8
  %27 = load ptr, ptr %4, align 8
  %28 = getelementptr inbounds %struct._cmsMemPluginChunkType, ptr %27, i32 0, i32 4
  store ptr @_cmsCallocDefaultFn, ptr %28, align 8
  %29 = load ptr, ptr %4, align 8
  %30 = getelementptr inbounds %struct._cmsMemPluginChunkType, ptr %29, i32 0, i32 5
  store ptr @_cmsDupDefaultFn, ptr %30, align 8
  %31 = load ptr, ptr %3, align 8
  %32 = getelementptr inbounds %struct.cmsPluginMemHandler, ptr %31, i32 0, i32 4
  %33 = load ptr, ptr %32, align 8
  %34 = icmp ne ptr %33, null
  br i1 %34, label %35, label %41

35:                                               ; preds = %9
  %36 = load ptr, ptr %3, align 8
  %37 = getelementptr inbounds %struct.cmsPluginMemHandler, ptr %36, i32 0, i32 4
  %38 = load ptr, ptr %37, align 8
  %39 = load ptr, ptr %4, align 8
  %40 = getelementptr inbounds %struct._cmsMemPluginChunkType, ptr %39, i32 0, i32 1
  store ptr %38, ptr %40, align 8
  br label %41

41:                                               ; preds = %35, %9
  %42 = load ptr, ptr %3, align 8
  %43 = getelementptr inbounds %struct.cmsPluginMemHandler, ptr %42, i32 0, i32 5
  %44 = load ptr, ptr %43, align 8
  %45 = icmp ne ptr %44, null
  br i1 %45, label %46, label %52

46:                                               ; preds = %41
  %47 = load ptr, ptr %3, align 8
  %48 = getelementptr inbounds %struct.cmsPluginMemHandler, ptr %47, i32 0, i32 5
  %49 = load ptr, ptr %48, align 8
  %50 = load ptr, ptr %4, align 8
  %51 = getelementptr inbounds %struct._cmsMemPluginChunkType, ptr %50, i32 0, i32 4
  store ptr %49, ptr %51, align 8
  br label %52

52:                                               ; preds = %46, %41
  %53 = load ptr, ptr %3, align 8
  %54 = getelementptr inbounds %struct.cmsPluginMemHandler, ptr %53, i32 0, i32 6
  %55 = load ptr, ptr %54, align 8
  %56 = icmp ne ptr %55, null
  br i1 %56, label %57, label %63

57:                                               ; preds = %52
  %58 = load ptr, ptr %3, align 8
  %59 = getelementptr inbounds %struct.cmsPluginMemHandler, ptr %58, i32 0, i32 6
  %60 = load ptr, ptr %59, align 8
  %61 = load ptr, ptr %4, align 8
  %62 = getelementptr inbounds %struct._cmsMemPluginChunkType, ptr %61, i32 0, i32 5
  store ptr %60, ptr %62, align 8
  br label %63

63:                                               ; preds = %57, %52
  br label %64

64:                                               ; preds = %63, %7
  ret void
}