; Function Attrs: mustprogress nofree norecurse nosync nounwind willreturn memory(readwrite, inaccessiblemem: none) uwtable
define hidden void @_cmsInstallAllocFunctions(ptr noundef readonly %0, ptr nocapture noundef writeonly %1) local_unnamed_addr #8 {
  %3 = icmp eq ptr %0, null
  br i1 %3, label %4, label %5

4:                                                ; preds = %2
  tail call void @llvm.memcpy.p0.p0.i64(ptr noundef nonnull align 8 dereferenceable(48) %1, ptr noundef nonnull align 8 dereferenceable(48) @_cmsMemPluginChunk, i64 48, i1 false)
  br label %28

5:                                                ; preds = %2
  %6 = getelementptr inbounds i8, ptr %0, i64 24
  %7 = load ptr, ptr %6, align 8
  store ptr %7, ptr %1, align 8
  %8 = getelementptr inbounds i8, ptr %0, i64 32
  %9 = load ptr, ptr %8, align 8
  %10 = getelementptr inbounds i8, ptr %1, i64 16
  store ptr %9, ptr %10, align 8
  %11 = getelementptr inbounds i8, ptr %0, i64 40
  %12 = load ptr, ptr %11, align 8
  %13 = getelementptr inbounds i8, ptr %1, i64 24
  store ptr %12, ptr %13, align 8
  %14 = getelementptr inbounds i8, ptr %1, i64 8
  store ptr @_cmsMallocZeroDefaultFn, ptr %14, align 8
  %15 = getelementptr inbounds i8, ptr %1, i64 32
  store ptr @_cmsCallocDefaultFn, ptr %15, align 8
  %16 = getelementptr inbounds i8, ptr %1, i64 40
  store ptr @_cmsDupDefaultFn, ptr %16, align 8
  %17 = getelementptr inbounds i8, ptr %0, i64 48
  %18 = load ptr, ptr %17, align 8
  %.not = icmp eq ptr %18, null
  br i1 %.not, label %20, label %19

19:                                               ; preds = %5
  store ptr %18, ptr %14, align 8
  br label %20

20:                                               ; preds = %19, %5
  %21 = getelementptr inbounds i8, ptr %0, i64 56
  %22 = load ptr, ptr %21, align 8
  %.not23 = icmp eq ptr %22, null
  br i1 %.not23, label %24, label %23

23:                                               ; preds = %20
  store ptr %22, ptr %15, align 8
  br label %24

24:                                               ; preds = %23, %20
  %25 = getelementptr inbounds i8, ptr %0, i64 64
  %26 = load ptr, ptr %25, align 8
  %.not24 = icmp eq ptr %26, null
  br i1 %.not24, label %28, label %27

27:                                               ; preds = %24
  store ptr %26, ptr %16, align 8
  br label %28

28:                                               ; preds = %24, %27, %4
  ret void
}